target datalayout = "e-m:e-p270:32:32-p271:32:32-p272:64:64-i64:64-i128:128-f80:128-n8:16:32:64-S128"
target triple = "x86_64-pc-linux-gnu"

@.str.63 = private unnamed_addr constant [5 x i8] c" \09\0D\0A\00", align 1

; Function Attrs: nounwind uwtable
define internal void @get_word_until_chars(ptr noundef %0, i32 noundef %1, ptr noundef %2, ptr noundef %3) #0 {
  %5 = alloca ptr, align 8
  %6 = alloca i32, align 4
  %7 = alloca ptr, align 8
  %8 = alloca ptr, align 8
  %9 = alloca ptr, align 8
  %10 = alloca ptr, align 8
  store ptr %0, ptr %5, align 8, !tbaa !10
  store i32 %1, ptr %6, align 4, !tbaa !12
  store ptr %2, ptr %7, align 8, !tbaa !10
  store ptr %3, ptr %8, align 8, !tbaa !4
  call void @llvm.lifetime.start.p0(i64 8, ptr %9) #13
  call void @llvm.lifetime.start.p0(i64 8, ptr %10) #13
  %11 = load ptr, ptr %8, align 8, !tbaa !4
  %12 = load ptr, ptr %11, align 8, !tbaa !10
  store ptr %12, ptr %9, align 8, !tbaa !10
  %13 = load ptr, ptr %9, align 8, !tbaa !10
  %14 = call i64 @strspn(ptr noundef %13, ptr noundef @.str.63) #12
  %15 = load ptr, ptr %9, align 8, !tbaa !10
  %16 = getelementptr inbounds nuw i8, ptr %15, i64 %14
  store ptr %16, ptr %9, align 8, !tbaa !10
  %17 = load ptr, ptr %5, align 8, !tbaa !10
  store ptr %17, ptr %10, align 8, !tbaa !10
  br label %18

18:                                               ; preds = %47, %4
  %19 = load ptr, ptr %7, align 8, !tbaa !10
  %20 = load ptr, ptr %9, align 8, !tbaa !10
  %21 = load i8, ptr %20, align 1, !tbaa !14
  %22 = sext i8 %21 to i32
  %23 = call ptr @strchr(ptr noundef %19, i32 noundef %22) #12
  %24 = icmp ne ptr %23, null
  br i1 %24, label %30, label %25

25:                                               ; preds = %18
  %26 = load ptr, ptr %9, align 8, !tbaa !10
  %27 = load i8, ptr %26, align 1, !tbaa !14
  %28 = sext i8 %27 to i32
  %29 = icmp ne i32 %28, 0
  br label %30

30:                                               ; preds = %25, %18
  %31 = phi i1 [ false, %18 ], [ %29, %25 ]
  br i1 %31, label %32, label %50

32:                                               ; preds = %30
  %33 = load ptr, ptr %10, align 8, !tbaa !10
  %34 = load ptr, ptr %5, align 8, !tbaa !10
  %35 = ptrtoint ptr %33 to i64
  %36 = ptrtoint ptr %34 to i64
  %37 = sub i64 %35, %36
  %38 = load i32, ptr %6, align 4, !tbaa !12
  %39 = sub nsw i32 %38, 1
  %40 = sext i32 %39 to i64
  %41 = icmp slt i64 %37, %40
  br i1 %41, label %42, label %47

42:                                               ; preds = %32
  %43 = load ptr, ptr %9, align 8, !tbaa !10
  %44 = load i8, ptr %43, align 1, !tbaa !14
  %45 = load ptr, ptr %10, align 8, !tbaa !10
  %46 = getelementptr inbounds nuw i8, ptr %45, i32 1
  store ptr %46, ptr %10, align 8, !tbaa !10
  store i8 %44, ptr %45, align 1, !tbaa !14
  br label %47

47:                                               ; preds = %42, %32
  %48 = load ptr, ptr %9, align 8, !tbaa !10
  %49 = getelementptr inbounds nuw i8, ptr %48, i32 1
  store ptr %49, ptr %9, align 8, !tbaa !10
  br label %18, !llvm.loop !239

50:                                               ; preds = %30
  %51 = load i32, ptr %6, align 4, !tbaa !12
  %52 = icmp sgt i32 %51, 0
  br i1 %52, label %53, label %55

53:                                               ; preds = %50
  %54 = load ptr, ptr %10, align 8, !tbaa !10
  store i8 0, ptr %54, align 1, !tbaa !14
  br label %55

55:                                               ; preds = %53, %50
  %56 = load ptr, ptr %9, align 8, !tbaa !10
  %57 = load ptr, ptr %8, align 8, !tbaa !4
  store ptr %56, ptr %57, align 8, !tbaa !10
  call void @llvm.lifetime.end.p0(i64 8, ptr %10) #13
  call void @llvm.lifetime.end.p0(i64 8, ptr %9) #13
  ret void
}

; Function Attrs: nounwind uwtable
define internal void @get_word(ptr noundef %0, i32 noundef %1, ptr noundef %2) #0 {
  %4 = alloca ptr, align 8
  %5 = alloca i32, align 4
  %6 = alloca ptr, align 8
  store ptr %0, ptr %4, align 8, !tbaa !10
  store i32 %1, ptr %5, align 4, !tbaa !12
  store ptr %2, ptr %6, align 8, !tbaa !4
  %7 = load ptr, ptr %4, align 8, !tbaa !10
  %8 = load i32, ptr %5, align 4, !tbaa !12
  %9 = load ptr, ptr %6, align 8, !tbaa !4
  call void @get_word_until_chars(ptr noundef %7, i32 noundef %8, ptr noundef @.str.63, ptr noundef %9)
  ret void
}