; Function Attrs: nofree norecurse nounwind memory(read, argmem: readwrite, inaccessiblemem: none) uwtable
define internal fastcc void @get_word(ptr noundef %0, i32 noundef range(i32 4, 4097) %1, ptr noundef nonnull captures(none) %2) unnamed_addr #0 {
  %4 = load ptr, ptr %2, align 8, !tbaa !4
  %5 = tail call i64 @strspn(ptr noundef %4, ptr noundef nonnull @.str.63) #14
  %6 = getelementptr inbounds nuw i8, ptr %4, i64 %5
  %7 = load i8, ptr %6, align 1, !tbaa !9
  %8 = zext nneg i8 %7 to i64
  %memchr.bounds = icmp ult i8 %7, 64
  %9 = shl nuw i64 1, %8
  %10 = and i64 %9, 4294977025
  %memchr.bits = icmp ne i64 %10, 0
  %memchr2 = select i1 %memchr.bounds, i1 %memchr.bits, i1 false
  %.not1719.i = icmp eq i8 %7, 0
  %or.cond20.i = or i1 %.not1719.i, %memchr2
  br i1 %or.cond20.i, label %get_word_until_chars.exit, label %.lr.ph.i

.lr.ph.i:                                         ; preds = %3
  %11 = ptrtoint ptr %0 to i64
  %12 = add nsw i32 %1, -1
  %13 = zext nneg i32 %12 to i64
  br label %14

14:                                               ; preds = %21, %.lr.ph.i
  %15 = phi i8 [ %7, %.lr.ph.i ], [ %23, %21 ]
  %.022.i = phi ptr [ %0, %.lr.ph.i ], [ %.1.i, %21 ]
  %.01621.i = phi ptr [ %6, %.lr.ph.i ], [ %22, %21 ]
  %16 = ptrtoint ptr %.022.i to i64
  %17 = sub i64 %16, %11
  %18 = icmp slt i64 %17, %13
  br i1 %18, label %19, label %21

19:                                               ; preds = %14
  %20 = getelementptr inbounds nuw i8, ptr %.022.i, i64 1
  store i8 %15, ptr %.022.i, align 1, !tbaa !9
  br label %21

21:                                               ; preds = %19, %14
  %.1.i = phi ptr [ %20, %19 ], [ %.022.i, %14 ]
  %22 = getelementptr inbounds nuw i8, ptr %.01621.i, i64 1
  %23 = load i8, ptr %22, align 1, !tbaa !9
  %24 = zext nneg i8 %23 to i64
  %memchr.bounds3 = icmp ult i8 %23, 64
  %25 = shl nuw i64 1, %24
  %26 = and i64 %25, 4294977025
  %memchr.bits4 = icmp ne i64 %26, 0
  %memchr5 = select i1 %memchr.bounds3, i1 %memchr.bits4, i1 false
  %.not17.i = icmp eq i8 %23, 0
  %or.cond.i = or i1 %.not17.i, %memchr5
  br i1 %or.cond.i, label %get_word_until_chars.exit, label %14, !llvm.loop !34

get_word_until_chars.exit:                        ; preds = %21, %3
  %.016.lcssa.i = phi ptr [ %6, %3 ], [ %22, %21 ]
  %.0.lcssa.i = phi ptr [ %0, %3 ], [ %.1.i, %21 ]
  store i8 0, ptr %.0.lcssa.i, align 1, !tbaa !9
  store ptr %.016.lcssa.i, ptr %2, align 8, !tbaa !4
  ret void
}